; Function Attrs: mustprogress nounwind uwtable
define internal void @_ZNK12_GLOBAL__N_123LoopExtractorLegacyPass16getAnalysisUsageERN4llvm13AnalysisUsageE(ptr nocapture nonnull readnone align 8 %0, ptr noundef nonnull align 8 dereferenceable(161) %1) unnamed_addr #0 align 2 {
  %3 = load ptr, ptr @_ZN4llvm20BreakCriticalEdgesIDE, align 8
  %4 = tail call noundef nonnull align 8 dereferenceable(161) ptr @_ZN4llvm13AnalysisUsage13addRequiredIDERc(ptr noundef nonnull align 8 dereferenceable(161) %1, ptr noundef nonnull align 1 dereferenceable(1) %3) #14
  %5 = tail call noundef nonnull align 8 dereferenceable(161) ptr @_ZN4llvm13AnalysisUsage13addRequiredIDERc(ptr noundef nonnull align 8 dereferenceable(161) %1, ptr noundef nonnull align 1 dereferenceable(1) @_ZN4llvm24DominatorTreeWrapperPass2IDE) #14
  %6 = tail call noundef nonnull align 8 dereferenceable(161) ptr @_ZN4llvm13AnalysisUsage13addRequiredIDERc(ptr noundef nonnull align 8 dereferenceable(161) %1, ptr noundef nonnull align 1 dereferenceable(1) @_ZN4llvm19LoopInfoWrapperPass2IDE) #14
  %7 = getelementptr inbounds nuw i8, ptr %1, i64 112
  tail call void @_ZN4llvm13AnalysisUsage10pushUniqueERNS_15SmallVectorImplIPKvEES3_(ptr noundef nonnull align 8 dereferenceable(161) %1, ptr noundef nonnull align 8 dereferenceable(16) %7, ptr noundef nonnull @_ZN4llvm19LoopInfoWrapperPass2IDE)
  %8 = load ptr, ptr @_ZN4llvm14LoopSimplifyIDE, align 8
  %9 = tail call noundef nonnull align 8 dereferenceable(161) ptr @_ZN4llvm13AnalysisUsage13addRequiredIDERc(ptr noundef nonnull align 8 dereferenceable(161) %1, ptr noundef nonnull align 1 dereferenceable(1) %8) #14
  %10 = getelementptr inbounds nuw i8, ptr %1, i64 144
  tail call void @_ZN4llvm13AnalysisUsage10pushUniqueERNS_15SmallVectorImplIPKvEES3_(ptr noundef nonnull align 8 dereferenceable(161) %1, ptr noundef nonnull align 8 dereferenceable(16) %10, ptr noundef nonnull @_ZN4llvm22AssumptionCacheTracker2IDE)
  ret void
}